; Function Attrs: mustprogress nounwind uwtable
define internal fastcc void @_ZL18addRegionIntoQueueRN4llvm6RegionERSt5dequeIPS0_SaIS3_EE(ptr noundef nonnull align 8 dereferenceable(112) %0, ptr noundef nonnull align 8 dereferenceable(80) %1) unnamed_addr #0 {
  %3 = alloca ptr, align 8
  store ptr %0, ptr %3, align 8
  %4 = getelementptr inbounds nuw i8, ptr %1, i64 48
  %5 = load ptr, ptr %4, align 8
  %6 = getelementptr inbounds i8, ptr %1, i64 64
  %7 = load ptr, ptr %6, align 8
  %8 = getelementptr inbounds i8, ptr %7, i64 -8
  %.not.i.i = icmp eq ptr %5, %8
  br i1 %.not.i.i, label %12, label %9

9:                                                ; preds = %2
  store ptr %0, ptr %5, align 8
  %10 = load ptr, ptr %4, align 8
  %11 = getelementptr inbounds i8, ptr %10, i64 8
  store ptr %11, ptr %4, align 8
  br label %_ZNSt5dequeIPN4llvm6RegionESaIS2_EE9push_backEOS2_.exit

12:                                               ; preds = %2
  call void @_ZNSt5dequeIPN4llvm6RegionESaIS2_EE16_M_push_back_auxIJS2_EEEvDpOT_(ptr noundef nonnull align 8 dereferenceable(80) %1, ptr noundef nonnull align 8 dereferenceable(8) %3)
  br label %_ZNSt5dequeIPN4llvm6RegionESaIS2_EE9push_backEOS2_.exit

_ZNSt5dequeIPN4llvm6RegionESaIS2_EE9push_backEOS2_.exit: ; preds = %9, %12
  %13 = call ptr @_ZN4llvm10RegionBaseINS_12RegionTraitsINS_8FunctionEEEE5beginEv(ptr noundef nonnull align 8 dereferenceable(112) %0) #19
  %14 = call ptr @_ZN4llvm10RegionBaseINS_12RegionTraitsINS_8FunctionEEEE3endEv(ptr noundef nonnull align 8 dereferenceable(112) %0) #19
  %.not10 = icmp eq ptr %13, %14
  br i1 %.not10, label %._crit_edge, label %.lr.ph

.lr.ph:                                           ; preds = %_ZNSt5dequeIPN4llvm6RegionESaIS2_EE9push_backEOS2_.exit, %.lr.ph
  %.sroa.07.011 = phi ptr [ %16, %.lr.ph ], [ %13, %_ZNSt5dequeIPN4llvm6RegionESaIS2_EE9push_backEOS2_.exit ]
  %15 = load ptr, ptr %.sroa.07.011, align 8
  call fastcc void @_ZL18addRegionIntoQueueRN4llvm6RegionERSt5dequeIPS0_SaIS3_EE(ptr noundef nonnull align 8 dereferenceable(112) %15, ptr noundef nonnull align 8 dereferenceable(80) %1)
  %16 = getelementptr inbounds i8, ptr %.sroa.07.011, i64 8
  %.not = icmp eq ptr %16, %14
  br i1 %.not, label %._crit_edge, label %.lr.ph

._crit_edge:                                      ; preds = %.lr.ph, %_ZNSt5dequeIPN4llvm6RegionESaIS2_EE9push_backEOS2_.exit
  ret void
}